target datalayout = "e-m:e-p270:32:32-p271:32:32-p272:64:64-i64:64-i128:128-f80:128-n8:16:32:64-S128"
target triple = "x86_64-pc-linux-gnu"

%struct.List = type { i32, i32, i32, ptr, [0 x %union.ListCell] }
%union.ListCell = type { ptr }
%struct.ForBothState = type { ptr, ptr, i32 }
%struct.Plan = type { i32, i32, double, double, double, i32, i8, i8, i8, i32, ptr, ptr, ptr, ptr, ptr, ptr, ptr }
%struct.Node = type { i32 }
%struct.Scan = type { %struct.Plan, i32 }
%struct.TargetEntry = type { %struct.Expr, ptr, i16, ptr, i32, i32, i16, i8 }
%struct.Expr = type { i32 }
%struct.Var = type { %struct.Expr, i32, i16, i32, i32, i32, ptr, i32, i32, i32, i16, i32 }
%struct.SubqueryScan = type { %struct.Scan, ptr, i32 }

; Function Attrs: inlinehint nounwind uwtable
define internal i32 @list_length(ptr noundef %0) #2 {
  %2 = alloca ptr, align 8
  store ptr %0, ptr %2, align 8
  %3 = load ptr, ptr %2, align 8
  %4 = icmp ne ptr %3, null
  br i1 %4, label %5, label %9

5:                                                ; preds = %1
  %6 = load ptr, ptr %2, align 8
  %7 = getelementptr inbounds nuw %struct.List, ptr %6, i32 0, i32 1
  %8 = load i32, ptr %7, align 4
  br label %10

9:                                                ; preds = %1
  br label %10

10:                                               ; preds = %9, %5
  %11 = phi i32 [ %8, %5 ], [ 0, %9 ]
  ret i32 %11
}

; Function Attrs: nounwind uwtable
define dso_local zeroext i1 @trivial_subqueryscan(ptr noundef %0) #0 {
  %2 = alloca i1, align 1
  %3 = alloca ptr, align 8
  %4 = alloca i32, align 4
  %5 = alloca ptr, align 8
  %6 = alloca ptr, align 8
  %7 = alloca i32, align 4
  %8 = alloca %struct.ForBothState, align 8
  %9 = alloca ptr, align 8
  %10 = alloca ptr, align 8
  %11 = alloca ptr, align 8
  store ptr %0, ptr %3, align 8
  call void @llvm.lifetime.start.p0(i64 4, ptr %4) #8
  call void @llvm.lifetime.start.p0(i64 8, ptr %5) #8
  call void @llvm.lifetime.start.p0(i64 8, ptr %6) #8
  %12 = load ptr, ptr %3, align 8
  %13 = getelementptr inbounds nuw %struct.SubqueryScan, ptr %12, i32 0, i32 2
  %14 = load i32, ptr %13, align 8
  %15 = icmp eq i32 %14, 1
  br i1 %15, label %16, label %17

16:                                               ; preds = %1
  store i1 true, ptr %2, align 1
  store i32 1, ptr %7, align 4
  br label %201

17:                                               ; preds = %1
  %18 = load ptr, ptr %3, align 8
  %19 = getelementptr inbounds nuw %struct.SubqueryScan, ptr %18, i32 0, i32 2
  %20 = load i32, ptr %19, align 8
  %21 = icmp eq i32 %20, 2
  br i1 %21, label %22, label %23

22:                                               ; preds = %17
  store i1 false, ptr %2, align 1
  store i32 1, ptr %7, align 4
  br label %201

23:                                               ; preds = %17
  %24 = load ptr, ptr %3, align 8
  %25 = getelementptr inbounds nuw %struct.SubqueryScan, ptr %24, i32 0, i32 2
  store i32 2, ptr %25, align 8
  %26 = load ptr, ptr %3, align 8
  %27 = getelementptr inbounds nuw %struct.SubqueryScan, ptr %26, i32 0, i32 0
  %28 = getelementptr inbounds nuw %struct.Scan, ptr %27, i32 0, i32 0
  %29 = getelementptr inbounds nuw %struct.Plan, ptr %28, i32 0, i32 11
  %30 = load ptr, ptr %29, align 8
  %31 = icmp ne ptr %30, null
  br i1 %31, label %32, label %33

32:                                               ; preds = %23
  store i1 false, ptr %2, align 1
  store i32 1, ptr %7, align 4
  br label %201

33:                                               ; preds = %23
  %34 = load ptr, ptr %3, align 8
  %35 = getelementptr inbounds nuw %struct.SubqueryScan, ptr %34, i32 0, i32 0
  %36 = getelementptr inbounds nuw %struct.Scan, ptr %35, i32 0, i32 0
  %37 = getelementptr inbounds nuw %struct.Plan, ptr %36, i32 0, i32 10
  %38 = load ptr, ptr %37, align 8
  %39 = call i32 @list_length(ptr noundef %38)
  %40 = load ptr, ptr %3, align 8
  %41 = getelementptr inbounds nuw %struct.SubqueryScan, ptr %40, i32 0, i32 1
  %42 = load ptr, ptr %41, align 8
  %43 = getelementptr inbounds nuw %struct.Plan, ptr %42, i32 0, i32 10
  %44 = load ptr, ptr %43, align 8
  %45 = call i32 @list_length(ptr noundef %44)
  %46 = icmp ne i32 %39, %45
  br i1 %46, label %47, label %48

47:                                               ; preds = %33
  store i1 false, ptr %2, align 1
  store i32 1, ptr %7, align 4
  br label %201

48:                                               ; preds = %33
  store i32 1, ptr %4, align 4
  call void @llvm.lifetime.start.p0(i64 24, ptr %8) #8
  %49 = getelementptr inbounds nuw %struct.ForBothState, ptr %8, i32 0, i32 0
  %50 = load ptr, ptr %3, align 8
  %51 = getelementptr inbounds nuw %struct.SubqueryScan, ptr %50, i32 0, i32 0
  %52 = getelementptr inbounds nuw %struct.Scan, ptr %51, i32 0, i32 0
  %53 = getelementptr inbounds nuw %struct.Plan, ptr %52, i32 0, i32 10
  %54 = load ptr, ptr %53, align 8
  store ptr %54, ptr %49, align 8
  %55 = getelementptr inbounds nuw %struct.ForBothState, ptr %8, i32 0, i32 1
  %56 = load ptr, ptr %3, align 8
  %57 = getelementptr inbounds nuw %struct.SubqueryScan, ptr %56, i32 0, i32 1
  %58 = load ptr, ptr %57, align 8
  %59 = getelementptr inbounds nuw %struct.Plan, ptr %58, i32 0, i32 10
  %60 = load ptr, ptr %59, align 8
  store ptr %60, ptr %55, align 8
  %61 = getelementptr inbounds nuw %struct.ForBothState, ptr %8, i32 0, i32 2
  store i32 0, ptr %61, align 8
  %62 = getelementptr i8, ptr %8, i64 20
  call void @llvm.memset.p0.i64(ptr align 4 %62, i8 0, i64 4, i1 false)
  br label %63

63:                                               ; preds = %192, %48
  %64 = getelementptr inbounds nuw %struct.ForBothState, ptr %8, i32 0, i32 0
  %65 = load ptr, ptr %64, align 8
  %66 = icmp ne ptr %65, null
  br i1 %66, label %67, label %84

67:                                               ; preds = %63
  %68 = getelementptr inbounds nuw %struct.ForBothState, ptr %8, i32 0, i32 2
  %69 = load i32, ptr %68, align 8
  %70 = getelementptr inbounds nuw %struct.ForBothState, ptr %8, i32 0, i32 0
  %71 = load ptr, ptr %70, align 8
  %72 = getelementptr inbounds nuw %struct.List, ptr %71, i32 0, i32 1
  %73 = load i32, ptr %72, align 4
  %74 = icmp slt i32 %69, %73
  br i1 %74, label %75, label %84

75:                                               ; preds = %67
  %76 = getelementptr inbounds nuw %struct.ForBothState, ptr %8, i32 0, i32 0
  %77 = load ptr, ptr %76, align 8
  %78 = getelementptr inbounds nuw %struct.List, ptr %77, i32 0, i32 3
  %79 = load ptr, ptr %78, align 8
  %80 = getelementptr inbounds nuw %struct.ForBothState, ptr %8, i32 0, i32 2
  %81 = load i32, ptr %80, align 8
  %82 = sext i32 %81 to i64
  %83 = getelementptr inbounds %union.ListCell, ptr %79, i64 %82
  br label %85

84:                                               ; preds = %67, %63
  br label %85

85:                                               ; preds = %84, %75
  %86 = phi ptr [ %83, %75 ], [ null, %84 ]
  store ptr %86, ptr %5, align 8
  %87 = getelementptr inbounds nuw %struct.ForBothState, ptr %8, i32 0, i32 1
  %88 = load ptr, ptr %87, align 8
  %89 = icmp ne ptr %88, null
  br i1 %89, label %90, label %107

90:                                               ; preds = %85
  %91 = getelementptr inbounds nuw %struct.ForBothState, ptr %8, i32 0, i32 2
  %92 = load i32, ptr %91, align 8
  %93 = getelementptr inbounds nuw %struct.ForBothState, ptr %8, i32 0, i32 1
  %94 = load ptr, ptr %93, align 8
  %95 = getelementptr inbounds nuw %struct.List, ptr %94, i32 0, i32 1
  %96 = load i32, ptr %95, align 4
  %97 = icmp slt i32 %92, %96
  br i1 %97, label %98, label %107

98:                                               ; preds = %90
  %99 = getelementptr inbounds nuw %struct.ForBothState, ptr %8, i32 0, i32 1
  %100 = load ptr, ptr %99, align 8
  %101 = getelementptr inbounds nuw %struct.List, ptr %100, i32 0, i32 3
  %102 = load ptr, ptr %101, align 8
  %103 = getelementptr inbounds nuw %struct.ForBothState, ptr %8, i32 0, i32 2
  %104 = load i32, ptr %103, align 8
  %105 = sext i32 %104 to i64
  %106 = getelementptr inbounds %union.ListCell, ptr %102, i64 %105
  br label %108

107:                                              ; preds = %90, %85
  br label %108

108:                                              ; preds = %107, %98
  %109 = phi ptr [ %106, %98 ], [ null, %107 ]
  store ptr %109, ptr %6, align 8
  %110 = load ptr, ptr %5, align 8
  %111 = icmp ne ptr %110, null
  br i1 %111, label %112, label %115

112:                                              ; preds = %108
  %113 = load ptr, ptr %6, align 8
  %114 = icmp ne ptr %113, null
  br label %115

115:                                              ; preds = %112, %108
  %116 = phi i1 [ false, %108 ], [ %114, %112 ]
  br i1 %116, label %118, label %117

117:                                              ; preds = %115
  store i32 2, ptr %7, align 4
  br label %196

118:                                              ; preds = %115
  call void @llvm.lifetime.start.p0(i64 8, ptr %9) #8
  %119 = load ptr, ptr %5, align 8
  %120 = load ptr, ptr %119, align 8
  store ptr %120, ptr %9, align 8
  call void @llvm.lifetime.start.p0(i64 8, ptr %10) #8
  %121 = load ptr, ptr %6, align 8
  %122 = load ptr, ptr %121, align 8
  store ptr %122, ptr %10, align 8
  %123 = load ptr, ptr %9, align 8
  %124 = getelementptr inbounds nuw %struct.TargetEntry, ptr %123, i32 0, i32 7
  %125 = load i8, ptr %124, align 2, !range !7, !noundef !8
  %126 = trunc i8 %125 to i1
  %127 = zext i1 %126 to i32
  %128 = load ptr, ptr %10, align 8
  %129 = getelementptr inbounds nuw %struct.TargetEntry, ptr %128, i32 0, i32 7
  %130 = load i8, ptr %129, align 2, !range !7, !noundef !8
  %131 = trunc i8 %130 to i1
  %132 = zext i1 %131 to i32
  %133 = icmp ne i32 %127, %132
  br i1 %133, label %134, label %135

134:                                              ; preds = %118
  store i1 false, ptr %2, align 1
  store i32 1, ptr %7, align 4
  br label %189

135:                                              ; preds = %118
  %136 = load ptr, ptr %9, align 8
  %137 = getelementptr inbounds nuw %struct.TargetEntry, ptr %136, i32 0, i32 1
  %138 = load ptr, ptr %137, align 8
  %139 = icmp ne ptr %138, null
  br i1 %139, label %140, label %162

140:                                              ; preds = %135
  %141 = load ptr, ptr %9, align 8
  %142 = getelementptr inbounds nuw %struct.TargetEntry, ptr %141, i32 0, i32 1
  %143 = load ptr, ptr %142, align 8
  %144 = getelementptr inbounds nuw %struct.Node, ptr %143, i32 0, i32 0
  %145 = load i32, ptr %144, align 4
  %146 = icmp eq i32 %145, 6
  br i1 %146, label %147, label %162

147:                                              ; preds = %140
  call void @llvm.lifetime.start.p0(i64 8, ptr %11) #8
  %148 = load ptr, ptr %9, align 8
  %149 = getelementptr inbounds nuw %struct.TargetEntry, ptr %148, i32 0, i32 1
  %150 = load ptr, ptr %149, align 8
  store ptr %150, ptr %11, align 8
  %151 = load ptr, ptr %11, align 8
  %152 = getelementptr inbounds nuw %struct.Var, ptr %151, i32 0, i32 2
  %153 = load i16, ptr %152, align 8
  %154 = sext i16 %153 to i32
  %155 = load i32, ptr %4, align 4
  %156 = icmp ne i32 %154, %155
  br i1 %156, label %157, label %158

157:                                              ; preds = %147
  store i1 false, ptr %2, align 1
  store i32 1, ptr %7, align 4
  br label %159

158:                                              ; preds = %147
  store i32 0, ptr %7, align 4
  br label %159

159:                                              ; preds = %158, %157
  call void @llvm.lifetime.end.p0(i64 8, ptr %11) #8
  %160 = load i32, ptr %7, align 4
  switch i32 %160, label %189 [
    i32 0, label %161
  ]

161:                                              ; preds = %159
  br label %186

162:                                              ; preds = %140, %135
  %163 = load ptr, ptr %9, align 8
  %164 = getelementptr inbounds nuw %struct.TargetEntry, ptr %163, i32 0, i32 1
  %165 = load ptr, ptr %164, align 8
  %166 = icmp ne ptr %165, null
  br i1 %166, label %167, label %184

167:                                              ; preds = %162
  %168 = load ptr, ptr %9, align 8
  %169 = getelementptr inbounds nuw %struct.TargetEntry, ptr %168, i32 0, i32 1
  %170 = load ptr, ptr %169, align 8
  %171 = getelementptr inbounds nuw %struct.Node, ptr %170, i32 0, i32 0
  %172 = load i32, ptr %171, align 4
  %173 = icmp eq i32 %172, 7
  br i1 %173, label %174, label %184

174:                                              ; preds = %167
  %175 = load ptr, ptr %9, align 8
  %176 = getelementptr inbounds nuw %struct.TargetEntry, ptr %175, i32 0, i32 1
  %177 = load ptr, ptr %176, align 8
  %178 = load ptr, ptr %10, align 8
  %179 = getelementptr inbounds nuw %struct.TargetEntry, ptr %178, i32 0, i32 1
  %180 = load ptr, ptr %179, align 8
  %181 = call zeroext i1 @equal(ptr noundef %177, ptr noundef %180)
  br i1 %181, label %183, label %182

182:                                              ; preds = %174
  store i1 false, ptr %2, align 1
  store i32 1, ptr %7, align 4
  br label %189

183:                                              ; preds = %174
  br label %185

184:                                              ; preds = %167, %162
  store i1 false, ptr %2, align 1
  store i32 1, ptr %7, align 4
  br label %189

185:                                              ; preds = %183
  br label %186

186:                                              ; preds = %185, %161
  %187 = load i32, ptr %4, align 4
  %188 = add i32 %187, 1
  store i32 %188, ptr %4, align 4
  store i32 0, ptr %7, align 4
  br label %189

189:                                              ; preds = %186, %184, %182, %159, %134
  call void @llvm.lifetime.end.p0(i64 8, ptr %10) #8
  call void @llvm.lifetime.end.p0(i64 8, ptr %9) #8
  %190 = load i32, ptr %7, align 4
  switch i32 %190, label %196 [
    i32 0, label %191
  ]

191:                                              ; preds = %189
  br label %192

192:                                              ; preds = %191
  %193 = getelementptr inbounds nuw %struct.ForBothState, ptr %8, i32 0, i32 2
  %194 = load i32, ptr %193, align 8
  %195 = add i32 %194, 1
  store i32 %195, ptr %193, align 8
  br label %63, !llvm.loop !21

196:                                              ; preds = %189, %117
  call void @llvm.lifetime.end.p0(i64 24, ptr %8) #8
  %197 = load i32, ptr %7, align 4
  switch i32 %197, label %201 [
    i32 2, label %198
  ]

198:                                              ; preds = %196
  %199 = load ptr, ptr %3, align 8
  %200 = getelementptr inbounds nuw %struct.SubqueryScan, ptr %199, i32 0, i32 2
  store i32 1, ptr %200, align 8
  store i1 true, ptr %2, align 1
  store i32 1, ptr %7, align 4
  br label %201

201:                                              ; preds = %198, %196, %47, %32, %22, %16
  call void @llvm.lifetime.end.p0(i64 8, ptr %6) #8
  call void @llvm.lifetime.end.p0(i64 8, ptr %5) #8
  call void @llvm.lifetime.end.p0(i64 4, ptr %4) #8
  %202 = load i1, ptr %2, align 1
  ret i1 %202
}