; Function Attrs: nounwind uwtable
define dso_local noundef zeroext i1 @trivial_subqueryscan(ptr noundef captures(none) %0) local_unnamed_addr #0 {
  %2 = getelementptr inbounds nuw i8, ptr %0, i64 120
  %3 = load i32, ptr %2, align 8
  switch i32 %3, label %5 [
    i32 1, label %.thread63
    i32 2, label %4
  ]

4:                                                ; preds = %1
  br label %.thread63

5:                                                ; preds = %1
  store i32 2, ptr %2, align 8
  %6 = getelementptr inbounds nuw i8, ptr %0, i64 56
  %7 = load ptr, ptr %6, align 8
  %.not = icmp eq ptr %7, null
  br i1 %.not, label %8, label %.thread63

8:                                                ; preds = %5
  %9 = getelementptr inbounds nuw i8, ptr %0, i64 48
  %10 = load ptr, ptr %9, align 8
  %.not.i = icmp eq ptr %10, null
  br i1 %.not.i, label %list_length.exit.thread, label %list_length.exit

list_length.exit:                                 ; preds = %8
  %11 = getelementptr inbounds nuw i8, ptr %10, i64 4
  %12 = load i32, ptr %11, align 4
  %13 = getelementptr inbounds nuw i8, ptr %0, i64 112
  %14 = load ptr, ptr %13, align 8
  %15 = getelementptr inbounds nuw i8, ptr %14, i64 48
  %16 = load ptr, ptr %15, align 8
  %.not.i60 = icmp eq ptr %16, null
  br i1 %.not.i60, label %list_length.exit61, label %list_length.exit61.thread

list_length.exit.thread:                          ; preds = %8
  %17 = getelementptr inbounds nuw i8, ptr %0, i64 112
  %18 = load ptr, ptr %17, align 8
  %19 = getelementptr inbounds nuw i8, ptr %18, i64 48
  %20 = load ptr, ptr %19, align 8
  %.not.i6075 = icmp eq ptr %20, null
  br i1 %.not.i6075, label %.critedge, label %list_length.exit61.thread.thread

list_length.exit61:                               ; preds = %list_length.exit
  %.not50 = icmp eq i32 %12, 0
  br i1 %.not50, label %.critedge, label %.thread63

list_length.exit61.thread:                        ; preds = %list_length.exit
  %21 = getelementptr inbounds nuw i8, ptr %16, i64 4
  %22 = load i32, ptr %21, align 4
  %.not5074 = icmp eq i32 %12, %22
  br i1 %.not5074, label %.preheader.split.split.preheader, label %.thread63

list_length.exit61.thread.thread:                 ; preds = %list_length.exit.thread
  %23 = getelementptr inbounds nuw i8, ptr %20, i64 4
  %24 = load i32, ptr %23, align 4
  %.not507478 = icmp eq i32 %24, 0
  br i1 %.not507478, label %.critedge, label %.thread63

.preheader.split.split.preheader:                 ; preds = %list_length.exit61.thread
  %25 = getelementptr inbounds nuw i8, ptr %10, i64 4
  %26 = getelementptr inbounds nuw i8, ptr %10, i64 16
  %27 = getelementptr inbounds nuw i8, ptr %16, i64 4
  %28 = getelementptr inbounds nuw i8, ptr %16, i64 16
  br label %.preheader.split.split

.preheader.split.split:                           ; preds = %.preheader.split.split.preheader, %65
  %indvars.iv = phi i64 [ 0, %.preheader.split.split.preheader ], [ %indvars.iv.next, %65 ]
  %.038 = phi i32 [ 1, %.preheader.split.split.preheader ], [ %66, %65 ]
  %29 = load i32, ptr %25, align 4
  %30 = sext i32 %29 to i64
  %31 = icmp slt i64 %indvars.iv, %30
  br i1 %31, label %32, label %35

32:                                               ; preds = %.preheader.split.split
  %33 = load ptr, ptr %26, align 8
  %34 = getelementptr inbounds nuw %union.ListCell, ptr %33, i64 %indvars.iv
  br label %35

35:                                               ; preds = %.preheader.split.split, %32
  %36 = phi ptr [ %34, %32 ], [ null, %.preheader.split.split ]
  %37 = load i32, ptr %27, align 4
  %38 = sext i32 %37 to i64
  %39 = icmp slt i64 %indvars.iv, %38
  br i1 %39, label %40, label %.critedge

40:                                               ; preds = %35
  %41 = load ptr, ptr %28, align 8
  %42 = icmp eq ptr %36, null
  %43 = icmp eq ptr %41, null
  %.not59 = select i1 %42, i1 true, i1 %43
  br i1 %.not59, label %.critedge, label %44

44:                                               ; preds = %40
  %45 = getelementptr inbounds nuw %union.ListCell, ptr %41, i64 %indvars.iv
  %46 = load ptr, ptr %36, align 8
  %47 = load ptr, ptr %45, align 8
  %48 = getelementptr inbounds nuw i8, ptr %46, i64 42
  %49 = load i8, ptr %48, align 2, !range !4, !noundef !5
  %50 = getelementptr inbounds nuw i8, ptr %47, i64 42
  %51 = load i8, ptr %50, align 2, !range !4, !noundef !5
  %.not53 = icmp eq i8 %49, %51
  br i1 %.not53, label %52, label %.thread63

52:                                               ; preds = %44
  %53 = getelementptr inbounds nuw i8, ptr %46, i64 8
  %54 = load ptr, ptr %53, align 8
  %.not54 = icmp eq ptr %54, null
  br i1 %.not54, label %.thread63, label %55

55:                                               ; preds = %52
  %56 = load i32, ptr %54, align 4
  switch i32 %56, label %.thread63 [
    i32 6, label %57
    i32 7, label %61
  ]

57:                                               ; preds = %55
  %58 = getelementptr inbounds nuw i8, ptr %54, i64 8
  %59 = load i16, ptr %58, align 8
  %60 = sext i16 %59 to i32
  %.not56 = icmp eq i32 %.038, %60
  br i1 %.not56, label %65, label %.thread63

61:                                               ; preds = %55
  %62 = getelementptr inbounds nuw i8, ptr %47, i64 8
  %63 = load ptr, ptr %62, align 8
  %64 = tail call zeroext i1 @equal(ptr noundef nonnull %54, ptr noundef %63) #8
  br i1 %64, label %65, label %.thread63

65:                                               ; preds = %61, %57
  %66 = add nuw i32 %.038, 1
  %indvars.iv.next = add nuw nsw i64 %indvars.iv, 1
  br label %.preheader.split.split, !llvm.loop !10

.critedge:                                        ; preds = %35, %40, %list_length.exit61, %list_length.exit61.thread.thread, %list_length.exit.thread
  store i32 1, ptr %2, align 8
  br label %.thread63

.thread63:                                        ; preds = %57, %44, %61, %52, %55, %list_length.exit61.thread.thread, %list_length.exit61.thread, %list_length.exit61, %5, %1, %.critedge, %4
  %.0 = phi i1 [ false, %4 ], [ true, %.critedge ], [ true, %1 ], [ false, %5 ], [ false, %list_length.exit61 ], [ false, %list_length.exit61.thread ], [ false, %list_length.exit61.thread.thread ], [ false, %55 ], [ false, %52 ], [ false, %61 ], [ false, %44 ], [ false, %57 ]
  ret i1 %.0
}